target datalayout = "e-m:e-p270:32:32-p271:32:32-p272:64:64-i64:64-i128:128-f80:128-n8:16:32:64-S128"
target triple = "x86_64-pc-linux-gnu"

%struct.commonDataFuncs = type { ptr, ptr }
%struct.DataHeader = type { %struct.MappedData, %struct.UDataInfo }
%struct.MappedData = type { i16, i8, i8 }
%struct.UDataInfo = type { i16, i16, i8, i8, i8, i8, [4 x i8], [4 x i8], [4 x i8] }
%struct.UDataMemory = type { ptr, ptr, ptr, i8, ptr, ptr, i32 }

@_ZL9CmnDFuncs = internal constant %struct.commonDataFuncs { ptr @_ZL17offsetTOCLookupFnPK11UDataMemoryPKcPiP10UErrorCode, ptr @_ZL19offsetTOCEntryCountPK11UDataMemory }, align 8
@_ZL9ToCPFuncs = internal constant %struct.commonDataFuncs { ptr @_ZL18pointerTOCLookupFnPK11UDataMemoryPKcPiP10UErrorCode, ptr @_ZL20pointerTOCEntryCountPK11UDataMemory }, align 8

; Function Attrs: mustprogress nounwind uwtable
define zeroext i16 @udata_getHeaderSize_77(ptr noundef %0) #0 {
  %2 = alloca i16, align 2
  %3 = alloca ptr, align 8
  %4 = alloca i16, align 2
  store ptr %0, ptr %3, align 8, !tbaa !3
  %5 = load ptr, ptr %3, align 8, !tbaa !3
  %6 = icmp eq ptr %5, null
  br i1 %6, label %7, label %8

7:                                                ; preds = %1
  store i16 0, ptr %2, align 2
  br label %33

8:                                                ; preds = %1
  %9 = load ptr, ptr %3, align 8, !tbaa !3
  %10 = getelementptr inbounds nuw %struct.DataHeader, ptr %9, i32 0, i32 1
  %11 = getelementptr inbounds nuw %struct.UDataInfo, ptr %10, i32 0, i32 2
  %12 = load i8, ptr %11, align 2, !tbaa !7
  %13 = zext i8 %12 to i32
  %14 = icmp eq i32 %13, 0
  br i1 %14, label %15, label %20

15:                                               ; preds = %8
  %16 = load ptr, ptr %3, align 8, !tbaa !3
  %17 = getelementptr inbounds nuw %struct.DataHeader, ptr %16, i32 0, i32 0
  %18 = getelementptr inbounds nuw %struct.MappedData, ptr %17, i32 0, i32 0
  %19 = load i16, ptr %18, align 2, !tbaa !12
  store i16 %19, ptr %2, align 2
  br label %33

20:                                               ; preds = %8
  call void @llvm.lifetime.start.p0(i64 2, ptr %4) #5
  %21 = load ptr, ptr %3, align 8, !tbaa !3
  %22 = getelementptr inbounds nuw %struct.DataHeader, ptr %21, i32 0, i32 0
  %23 = getelementptr inbounds nuw %struct.MappedData, ptr %22, i32 0, i32 0
  %24 = load i16, ptr %23, align 2, !tbaa !12
  store i16 %24, ptr %4, align 2, !tbaa !13
  %25 = load i16, ptr %4, align 2, !tbaa !13
  %26 = zext i16 %25 to i32
  %27 = shl i32 %26, 8
  %28 = load i16, ptr %4, align 2, !tbaa !13
  %29 = zext i16 %28 to i32
  %30 = ashr i32 %29, 8
  %31 = or i32 %27, %30
  %32 = trunc i32 %31 to i16
  store i16 %32, ptr %2, align 2
  call void @llvm.lifetime.end.p0(i64 2, ptr %4) #5
  br label %33

33:                                               ; preds = %20, %15, %7
  %34 = load i16, ptr %2, align 2
  ret i16 %34
}

; Function Attrs: inlinehint mustprogress nounwind uwtable
define internal noundef signext i8 @_ZL9U_FAILURE10UErrorCode(i32 noundef %0) #3 {
  %2 = alloca i32, align 4
  store i32 %0, ptr %2, align 4, !tbaa !18
  %3 = load i32, ptr %2, align 4, !tbaa !18
  %4 = icmp sgt i32 %3, 0
  %5 = zext i1 %4 to i8
  ret i8 %5
}

; Function Attrs: mustprogress uwtable
define void @udata_checkCommonData_77(ptr noundef %0, ptr noundef %1) #2 {
  %3 = alloca ptr, align 8
  %4 = alloca ptr, align 8
  store ptr %0, ptr %3, align 8, !tbaa !16
  store ptr %1, ptr %4, align 8, !tbaa !3
  %5 = load ptr, ptr %4, align 8, !tbaa !3
  %6 = load i32, ptr %5, align 4, !tbaa !18
  %7 = call noundef signext i8 @_ZL9U_FAILURE10UErrorCode(i32 noundef %6)
  %8 = icmp ne i8 %7, 0
  br i1 %8, label %9, label %10

9:                                                ; preds = %2
  br label %200

10:                                               ; preds = %2
  %11 = load ptr, ptr %3, align 8, !tbaa !16
  %12 = icmp eq ptr %11, null
  br i1 %12, label %18, label %13

13:                                               ; preds = %10
  %14 = load ptr, ptr %3, align 8, !tbaa !16
  %15 = getelementptr inbounds nuw %struct.UDataMemory, ptr %14, i32 0, i32 1
  %16 = load ptr, ptr %15, align 8, !tbaa !20
  %17 = icmp eq ptr %16, null
  br i1 %17, label %18, label %20

18:                                               ; preds = %13, %10
  %19 = load ptr, ptr %4, align 8, !tbaa !3
  store i32 3, ptr %19, align 4, !tbaa !18
  br label %193

20:                                               ; preds = %13
  %21 = load ptr, ptr %3, align 8, !tbaa !16
  %22 = getelementptr inbounds nuw %struct.UDataMemory, ptr %21, i32 0, i32 1
  %23 = load ptr, ptr %22, align 8, !tbaa !20
  %24 = getelementptr inbounds nuw %struct.DataHeader, ptr %23, i32 0, i32 0
  %25 = getelementptr inbounds nuw %struct.MappedData, ptr %24, i32 0, i32 1
  %26 = load i8, ptr %25, align 2, !tbaa !23
  %27 = zext i8 %26 to i32
  %28 = icmp eq i32 %27, 218
  br i1 %28, label %29, label %56

29:                                               ; preds = %20
  %30 = load ptr, ptr %3, align 8, !tbaa !16
  %31 = getelementptr inbounds nuw %struct.UDataMemory, ptr %30, i32 0, i32 1
  %32 = load ptr, ptr %31, align 8, !tbaa !20
  %33 = getelementptr inbounds nuw %struct.DataHeader, ptr %32, i32 0, i32 0
  %34 = getelementptr inbounds nuw %struct.MappedData, ptr %33, i32 0, i32 2
  %35 = load i8, ptr %34, align 1, !tbaa !24
  %36 = zext i8 %35 to i32
  %37 = icmp eq i32 %36, 39
  br i1 %37, label %38, label %56

38:                                               ; preds = %29
  %39 = load ptr, ptr %3, align 8, !tbaa !16
  %40 = getelementptr inbounds nuw %struct.UDataMemory, ptr %39, i32 0, i32 1
  %41 = load ptr, ptr %40, align 8, !tbaa !20
  %42 = getelementptr inbounds nuw %struct.DataHeader, ptr %41, i32 0, i32 1
  %43 = getelementptr inbounds nuw %struct.UDataInfo, ptr %42, i32 0, i32 2
  %44 = load i8, ptr %43, align 2, !tbaa !7
  %45 = zext i8 %44 to i32
  %46 = icmp eq i32 %45, 0
  br i1 %46, label %47, label %56

47:                                               ; preds = %38
  %48 = load ptr, ptr %3, align 8, !tbaa !16
  %49 = getelementptr inbounds nuw %struct.UDataMemory, ptr %48, i32 0, i32 1
  %50 = load ptr, ptr %49, align 8, !tbaa !20
  %51 = getelementptr inbounds nuw %struct.DataHeader, ptr %50, i32 0, i32 1
  %52 = getelementptr inbounds nuw %struct.UDataInfo, ptr %51, i32 0, i32 3
  %53 = load i8, ptr %52, align 1, !tbaa !25
  %54 = zext i8 %53 to i32
  %55 = icmp eq i32 %54, 0
  br i1 %55, label %58, label %56

56:                                               ; preds = %47, %38, %29, %20
  %57 = load ptr, ptr %4, align 8, !tbaa !3
  store i32 3, ptr %57, align 4, !tbaa !18
  br label %192

58:                                               ; preds = %47
  %59 = load ptr, ptr %3, align 8, !tbaa !16
  %60 = getelementptr inbounds nuw %struct.UDataMemory, ptr %59, i32 0, i32 1
  %61 = load ptr, ptr %60, align 8, !tbaa !20
  %62 = getelementptr inbounds nuw %struct.DataHeader, ptr %61, i32 0, i32 1
  %63 = getelementptr inbounds nuw %struct.UDataInfo, ptr %62, i32 0, i32 6
  %64 = getelementptr inbounds [4 x i8], ptr %63, i64 0, i64 0
  %65 = load i8, ptr %64, align 2, !tbaa !26
  %66 = zext i8 %65 to i32
  %67 = icmp eq i32 %66, 67
  br i1 %67, label %68, label %123

68:                                               ; preds = %58
  %69 = load ptr, ptr %3, align 8, !tbaa !16
  %70 = getelementptr inbounds nuw %struct.UDataMemory, ptr %69, i32 0, i32 1
  %71 = load ptr, ptr %70, align 8, !tbaa !20
  %72 = getelementptr inbounds nuw %struct.DataHeader, ptr %71, i32 0, i32 1
  %73 = getelementptr inbounds nuw %struct.UDataInfo, ptr %72, i32 0, i32 6
  %74 = getelementptr inbounds [4 x i8], ptr %73, i64 0, i64 1
  %75 = load i8, ptr %74, align 1, !tbaa !26
  %76 = zext i8 %75 to i32
  %77 = icmp eq i32 %76, 109
  br i1 %77, label %78, label %123

78:                                               ; preds = %68
  %79 = load ptr, ptr %3, align 8, !tbaa !16
  %80 = getelementptr inbounds nuw %struct.UDataMemory, ptr %79, i32 0, i32 1
  %81 = load ptr, ptr %80, align 8, !tbaa !20
  %82 = getelementptr inbounds nuw %struct.DataHeader, ptr %81, i32 0, i32 1
  %83 = getelementptr inbounds nuw %struct.UDataInfo, ptr %82, i32 0, i32 6
  %84 = getelementptr inbounds [4 x i8], ptr %83, i64 0, i64 2
  %85 = load i8, ptr %84, align 2, !tbaa !26
  %86 = zext i8 %85 to i32
  %87 = icmp eq i32 %86, 110
  br i1 %87, label %88, label %123

88:                                               ; preds = %78
  %89 = load ptr, ptr %3, align 8, !tbaa !16
  %90 = getelementptr inbounds nuw %struct.UDataMemory, ptr %89, i32 0, i32 1
  %91 = load ptr, ptr %90, align 8, !tbaa !20
  %92 = getelementptr inbounds nuw %struct.DataHeader, ptr %91, i32 0, i32 1
  %93 = getelementptr inbounds nuw %struct.UDataInfo, ptr %92, i32 0, i32 6
  %94 = getelementptr inbounds [4 x i8], ptr %93, i64 0, i64 3
  %95 = load i8, ptr %94, align 1, !tbaa !26
  %96 = zext i8 %95 to i32
  %97 = icmp eq i32 %96, 68
  br i1 %97, label %98, label %123

98:                                               ; preds = %88
  %99 = load ptr, ptr %3, align 8, !tbaa !16
  %100 = getelementptr inbounds nuw %struct.UDataMemory, ptr %99, i32 0, i32 1
  %101 = load ptr, ptr %100, align 8, !tbaa !20
  %102 = getelementptr inbounds nuw %struct.DataHeader, ptr %101, i32 0, i32 1
  %103 = getelementptr inbounds nuw %struct.UDataInfo, ptr %102, i32 0, i32 7
  %104 = getelementptr inbounds [4 x i8], ptr %103, i64 0, i64 0
  %105 = load i8, ptr %104, align 2, !tbaa !26
  %106 = zext i8 %105 to i32
  %107 = icmp eq i32 %106, 1
  br i1 %107, label %108, label %123

108:                                              ; preds = %98
  %109 = load ptr, ptr %3, align 8, !tbaa !16
  %110 = getelementptr inbounds nuw %struct.UDataMemory, ptr %109, i32 0, i32 0
  store ptr @_ZL9CmnDFuncs, ptr %110, align 8, !tbaa !27
  %111 = load ptr, ptr %3, align 8, !tbaa !16
  %112 = getelementptr inbounds nuw %struct.UDataMemory, ptr %111, i32 0, i32 1
  %113 = load ptr, ptr %112, align 8, !tbaa !20
  %114 = load ptr, ptr %3, align 8, !tbaa !16
  %115 = getelementptr inbounds nuw %struct.UDataMemory, ptr %114, i32 0, i32 1
  %116 = load ptr, ptr %115, align 8, !tbaa !20
  %117 = call zeroext i16 @udata_getHeaderSize_77(ptr noundef %116)
  %118 = zext i16 %117 to i32
  %119 = sext i32 %118 to i64
  %120 = getelementptr inbounds i8, ptr %113, i64 %119
  %121 = load ptr, ptr %3, align 8, !tbaa !16
  %122 = getelementptr inbounds nuw %struct.UDataMemory, ptr %121, i32 0, i32 2
  store ptr %120, ptr %122, align 8, !tbaa !28
  br label %191

123:                                              ; preds = %98, %88, %78, %68, %58
  %124 = load ptr, ptr %3, align 8, !tbaa !16
  %125 = getelementptr inbounds nuw %struct.UDataMemory, ptr %124, i32 0, i32 1
  %126 = load ptr, ptr %125, align 8, !tbaa !20
  %127 = getelementptr inbounds nuw %struct.DataHeader, ptr %126, i32 0, i32 1
  %128 = getelementptr inbounds nuw %struct.UDataInfo, ptr %127, i32 0, i32 6
  %129 = getelementptr inbounds [4 x i8], ptr %128, i64 0, i64 0
  %130 = load i8, ptr %129, align 2, !tbaa !26
  %131 = zext i8 %130 to i32
  %132 = icmp eq i32 %131, 84
  br i1 %132, label %133, label %188

133:                                              ; preds = %123
  %134 = load ptr, ptr %3, align 8, !tbaa !16
  %135 = getelementptr inbounds nuw %struct.UDataMemory, ptr %134, i32 0, i32 1
  %136 = load ptr, ptr %135, align 8, !tbaa !20
  %137 = getelementptr inbounds nuw %struct.DataHeader, ptr %136, i32 0, i32 1
  %138 = getelementptr inbounds nuw %struct.UDataInfo, ptr %137, i32 0, i32 6
  %139 = getelementptr inbounds [4 x i8], ptr %138, i64 0, i64 1
  %140 = load i8, ptr %139, align 1, !tbaa !26
  %141 = zext i8 %140 to i32
  %142 = icmp eq i32 %141, 111
  br i1 %142, label %143, label %188

143:                                              ; preds = %133
  %144 = load ptr, ptr %3, align 8, !tbaa !16
  %145 = getelementptr inbounds nuw %struct.UDataMemory, ptr %144, i32 0, i32 1
  %146 = load ptr, ptr %145, align 8, !tbaa !20
  %147 = getelementptr inbounds nuw %struct.DataHeader, ptr %146, i32 0, i32 1
  %148 = getelementptr inbounds nuw %struct.UDataInfo, ptr %147, i32 0, i32 6
  %149 = getelementptr inbounds [4 x i8], ptr %148, i64 0, i64 2
  %150 = load i8, ptr %149, align 2, !tbaa !26
  %151 = zext i8 %150 to i32
  %152 = icmp eq i32 %151, 67
  br i1 %152, label %153, label %188

153:                                              ; preds = %143
  %154 = load ptr, ptr %3, align 8, !tbaa !16
  %155 = getelementptr inbounds nuw %struct.UDataMemory, ptr %154, i32 0, i32 1
  %156 = load ptr, ptr %155, align 8, !tbaa !20
  %157 = getelementptr inbounds nuw %struct.DataHeader, ptr %156, i32 0, i32 1
  %158 = getelementptr inbounds nuw %struct.UDataInfo, ptr %157, i32 0, i32 6
  %159 = getelementptr inbounds [4 x i8], ptr %158, i64 0, i64 3
  %160 = load i8, ptr %159, align 1, !tbaa !26
  %161 = zext i8 %160 to i32
  %162 = icmp eq i32 %161, 80
  br i1 %162, label %163, label %188

163:                                              ; preds = %153
  %164 = load ptr, ptr %3, align 8, !tbaa !16
  %165 = getelementptr inbounds nuw %struct.UDataMemory, ptr %164, i32 0, i32 1
  %166 = load ptr, ptr %165, align 8, !tbaa !20
  %167 = getelementptr inbounds nuw %struct.DataHeader, ptr %166, i32 0, i32 1
  %168 = getelementptr inbounds nuw %struct.UDataInfo, ptr %167, i32 0, i32 7
  %169 = getelementptr inbounds [4 x i8], ptr %168, i64 0, i64 0
  %170 = load i8, ptr %169, align 2, !tbaa !26
  %171 = zext i8 %170 to i32
  %172 = icmp eq i32 %171, 1
  br i1 %172, label %173, label %188

173:                                              ; preds = %163
  %174 = load ptr, ptr %3, align 8, !tbaa !16
  %175 = getelementptr inbounds nuw %struct.UDataMemory, ptr %174, i32 0, i32 0
  store ptr @_ZL9ToCPFuncs, ptr %175, align 8, !tbaa !27
  %176 = load ptr, ptr %3, align 8, !tbaa !16
  %177 = getelementptr inbounds nuw %struct.UDataMemory, ptr %176, i32 0, i32 1
  %178 = load ptr, ptr %177, align 8, !tbaa !20
  %179 = load ptr, ptr %3, align 8, !tbaa !16
  %180 = getelementptr inbounds nuw %struct.UDataMemory, ptr %179, i32 0, i32 1
  %181 = load ptr, ptr %180, align 8, !tbaa !20
  %182 = call zeroext i16 @udata_getHeaderSize_77(ptr noundef %181)
  %183 = zext i16 %182 to i32
  %184 = sext i32 %183 to i64
  %185 = getelementptr inbounds i8, ptr %178, i64 %184
  %186 = load ptr, ptr %3, align 8, !tbaa !16
  %187 = getelementptr inbounds nuw %struct.UDataMemory, ptr %186, i32 0, i32 2
  store ptr %185, ptr %187, align 8, !tbaa !28
  br label %190

188:                                              ; preds = %163, %153, %143, %133, %123
  %189 = load ptr, ptr %4, align 8, !tbaa !3
  store i32 3, ptr %189, align 4, !tbaa !18
  br label %190

190:                                              ; preds = %188, %173
  br label %191

191:                                              ; preds = %190, %108
  br label %192

192:                                              ; preds = %191, %56
  br label %193

193:                                              ; preds = %192, %18
  %194 = load ptr, ptr %4, align 8, !tbaa !3
  %195 = load i32, ptr %194, align 4, !tbaa !18
  %196 = call noundef signext i8 @_ZL9U_FAILURE10UErrorCode(i32 noundef %195)
  %197 = icmp ne i8 %196, 0
  br i1 %197, label %198, label %200

198:                                              ; preds = %193
  %199 = load ptr, ptr %3, align 8, !tbaa !16
  call void @udata_close_77(ptr noundef %199)
  br label %200

200:                                              ; preds = %9, %198, %193
  ret void
}