; Function Attrs: mustprogress uwtable
define void @udata_checkCommonData_77(ptr noundef %0, ptr noundef captures(none) %1) local_unnamed_addr #1 {
  %3 = load i32, ptr %1, align 4, !tbaa !13
  %4 = icmp slt i32 %3, 1
  br i1 %4, label %5, label %70

5:                                                ; preds = %2
  %6 = icmp eq ptr %0, null
  br i1 %6, label %.thread, label %7

7:                                                ; preds = %5
  %8 = getelementptr inbounds nuw i8, ptr %0, i64 8
  %9 = load ptr, ptr %8, align 8, !tbaa !15
  %10 = icmp eq ptr %9, null
  br i1 %10, label %.thread, label %11

11:                                               ; preds = %7
  %12 = getelementptr inbounds nuw i8, ptr %9, i64 2
  %13 = load i8, ptr %12, align 2, !tbaa !19
  %14 = icmp eq i8 %13, -38
  br i1 %14, label %15, label %.thread

15:                                               ; preds = %11
  %16 = getelementptr inbounds nuw i8, ptr %9, i64 3
  %17 = load i8, ptr %16, align 1, !tbaa !20
  %18 = icmp eq i8 %17, 39
  br i1 %18, label %19, label %.thread

19:                                               ; preds = %15
  %20 = getelementptr inbounds nuw i8, ptr %9, i64 8
  %21 = load i8, ptr %20, align 2, !tbaa !3
  %22 = icmp eq i8 %21, 0
  br i1 %22, label %23, label %.thread

23:                                               ; preds = %19
  %24 = getelementptr inbounds nuw i8, ptr %9, i64 9
  %25 = load i8, ptr %24, align 1, !tbaa !21
  %26 = icmp eq i8 %25, 0
  br i1 %26, label %27, label %.thread

27:                                               ; preds = %23
  %28 = getelementptr inbounds nuw i8, ptr %9, i64 12
  %29 = load i8, ptr %28, align 2, !tbaa !22
  switch i8 %29, label %.thread [
    i8 67, label %30
    i8 84, label %50
  ]

30:                                               ; preds = %27
  %31 = getelementptr inbounds nuw i8, ptr %9, i64 13
  %32 = load i8, ptr %31, align 1, !tbaa !22
  %33 = icmp eq i8 %32, 109
  br i1 %33, label %34, label %.thread

34:                                               ; preds = %30
  %35 = getelementptr inbounds nuw i8, ptr %9, i64 14
  %36 = load i8, ptr %35, align 2, !tbaa !22
  %37 = icmp eq i8 %36, 110
  br i1 %37, label %38, label %.thread

38:                                               ; preds = %34
  %39 = getelementptr inbounds nuw i8, ptr %9, i64 15
  %40 = load i8, ptr %39, align 1, !tbaa !22
  %41 = icmp eq i8 %40, 68
  br i1 %41, label %42, label %.thread

42:                                               ; preds = %38
  %43 = getelementptr inbounds nuw i8, ptr %9, i64 16
  %44 = load i8, ptr %43, align 2, !tbaa !22
  %45 = icmp eq i8 %44, 1
  br i1 %45, label %udata_getHeaderSize_77.exit, label %.thread

udata_getHeaderSize_77.exit:                      ; preds = %42
  store ptr @_ZL9CmnDFuncs, ptr %0, align 8, !tbaa !23
  %46 = load i16, ptr %9, align 2, !tbaa !10
  %47 = zext i16 %46 to i64
  %48 = getelementptr inbounds nuw i8, ptr %9, i64 %47
  %49 = getelementptr inbounds nuw i8, ptr %0, i64 16
  store ptr %48, ptr %49, align 8, !tbaa !24
  br label %70

50:                                               ; preds = %27
  %51 = getelementptr inbounds nuw i8, ptr %9, i64 13
  %52 = load i8, ptr %51, align 1, !tbaa !22
  %53 = icmp eq i8 %52, 111
  br i1 %53, label %54, label %.thread

54:                                               ; preds = %50
  %55 = getelementptr inbounds nuw i8, ptr %9, i64 14
  %56 = load i8, ptr %55, align 2, !tbaa !22
  %57 = icmp eq i8 %56, 67
  br i1 %57, label %58, label %.thread

58:                                               ; preds = %54
  %59 = getelementptr inbounds nuw i8, ptr %9, i64 15
  %60 = load i8, ptr %59, align 1, !tbaa !22
  %61 = icmp eq i8 %60, 80
  br i1 %61, label %62, label %.thread

62:                                               ; preds = %58
  %63 = getelementptr inbounds nuw i8, ptr %9, i64 16
  %64 = load i8, ptr %63, align 2, !tbaa !22
  %65 = icmp eq i8 %64, 1
  br i1 %65, label %udata_getHeaderSize_77.exit34, label %.thread

udata_getHeaderSize_77.exit34:                    ; preds = %62
  store ptr @_ZL9ToCPFuncs, ptr %0, align 8, !tbaa !23
  %66 = load i16, ptr %9, align 2, !tbaa !10
  %67 = zext i16 %66 to i64
  %68 = getelementptr inbounds nuw i8, ptr %9, i64 %67
  %69 = getelementptr inbounds nuw i8, ptr %0, i64 16
  store ptr %68, ptr %69, align 8, !tbaa !24
  br label %70

.thread:                                          ; preds = %50, %54, %58, %62, %42, %38, %34, %30, %27, %11, %15, %19, %23, %5, %7
  store i32 3, ptr %1, align 4, !tbaa !13
  tail call void @udata_close_77(ptr noundef %0)
  br label %70

70:                                               ; preds = %udata_getHeaderSize_77.exit, %udata_getHeaderSize_77.exit34, %2, %.thread
  ret void
}